; Function Attrs: mustprogress nounwind uwtable
define noundef nonnull align 8 dereferenceable(1216) ptr @_ZN6icu_756number29LocalizedNumberRangeFormatteraSEOS1_(ptr noundef nonnull returned align 8 dereferenceable(1216) %this, ptr noundef nonnull align 8 dereferenceable(1216) %src) local_unnamed_addr #0 align 2 personality ptr @__gxx_personality_v0 {
entry:
  %formatter1.i.i = getelementptr inbounds i8, ptr %this, i64 8
  %formatter12.i.i = getelementptr inbounds i8, ptr %src, i64 8
  %call.i.i = tail call noundef nonnull align 8 dereferenceable(473) ptr @_ZN6icu_756number26UnlocalizedNumberFormatteraSEOS1_(ptr noundef nonnull align 8 dereferenceable(473) %formatter1.i.i, ptr noundef nonnull align 8 dereferenceable(473) %formatter12.i.i) #10
  %formatter2.i.i = getelementptr inbounds i8, ptr %this, i64 488
  %formatter23.i.i = getelementptr inbounds i8, ptr %src, i64 488
  %call4.i.i = tail call noundef nonnull align 8 dereferenceable(473) ptr @_ZN6icu_756number26UnlocalizedNumberFormatteraSEOS1_(ptr noundef nonnull align 8 dereferenceable(473) %formatter2.i.i, ptr noundef nonnull align 8 dereferenceable(473) %formatter23.i.i) #10
  %singleFormatter.i.i = getelementptr inbounds i8, ptr %this, i64 968
  %singleFormatter5.i.i = getelementptr inbounds i8, ptr %src, i64 968
  tail call void @llvm.memcpy.p0.p0.i64(ptr noundef nonnull align 8 dereferenceable(12) %singleFormatter.i.i, ptr noundef nonnull align 8 dereferenceable(12) %singleFormatter5.i.i, i64 12, i1 false)
  %locale.i.i = getelementptr inbounds i8, ptr %this, i64 984
  %locale6.i.i = getelementptr inbounds i8, ptr %src, i64 984
  %call7.i.i = tail call noundef nonnull align 8 dereferenceable(217) ptr @_ZN6icu_756LocaleaSEOS0_(ptr noundef nonnull align 8 dereferenceable(217) %locale.i.i, ptr noundef nonnull align 8 dereferenceable(217) %locale6.i.i) #10
  %fAtomicFormatter = getelementptr inbounds i8, ptr %src, i64 1208
  %0 = atomicrmw xchg ptr %fAtomicFormatter, i64 0 seq_cst, align 8
  %fAtomicFormatter3 = getelementptr inbounds i8, ptr %this, i64 1208
  %1 = atomicrmw xchg ptr %fAtomicFormatter3, i64 %0 seq_cst, align 8
  %atomic-temp.i.0.i2 = inttoptr i64 %1 to ptr
  %isnull = icmp eq i64 %1, 0
  br i1 %isnull, label %delete.end, label %delete.notnull

delete.notnull:                                   ; preds = %entry
  %needToRelease.i.i.i.i = getelementptr inbounds i8, ptr %atomic-temp.i.0.i2, i64 1908
  %2 = load i8, ptr %needToRelease.i.i.i.i, align 4
  %tobool.not.i.i.i.i = icmp eq i8 %2, 0
  br i1 %tobool.not.i.i.i.i, label %_ZN6icu_756number4impl24NumberRangeFormatterImplD2Ev.exit, label %if.then.i.i.i.i

if.then.i.i.i.i:                                  ; preds = %delete.notnull
  %fPluralRanges.i = getelementptr inbounds i8, ptr %atomic-temp.i.0.i2, i64 1896
  %3 = load ptr, ptr %fPluralRanges.i, align 8
  invoke void @uprv_free_75(ptr noundef %3)
          to label %_ZN6icu_756number4impl24NumberRangeFormatterImplD2Ev.exit unwind label %terminate.lpad.i.i.i

terminate.lpad.i.i.i:                             ; preds = %if.then.i.i.i.i
  %4 = landingpad { ptr, i32 }
          catch ptr null
  %5 = extractvalue { ptr, i32 } %4, 0
  tail call void @__clang_call_terminate(ptr %5) #12
  unreachable

_ZN6icu_756number4impl24NumberRangeFormatterImplD2Ev.exit: ; preds = %delete.notnull, %if.then.i.i.i.i
  %fApproximatelyFormatter.i = getelementptr inbounds i8, ptr %atomic-temp.i.0.i2, i64 1296
  tail call void @_ZN6icu_756number4impl19NumberFormatterImplD2Ev(ptr noundef nonnull align 8 dereferenceable(600) %fApproximatelyFormatter.i) #10
  %fRangeFormatter.i = getelementptr inbounds i8, ptr %atomic-temp.i.0.i2, i64 1224
  tail call void @_ZN6icu_7515SimpleFormatterD1Ev(ptr noundef nonnull align 8 dereferenceable(72) %fRangeFormatter.i) #10
  %formatterImpl2.i = getelementptr inbounds i8, ptr %atomic-temp.i.0.i2, i64 608
  tail call void @_ZN6icu_756number4impl19NumberFormatterImplD2Ev(ptr noundef nonnull align 8 dereferenceable(600) %formatterImpl2.i) #10
  %formatterImpl1.i = getelementptr inbounds i8, ptr %atomic-temp.i.0.i2, i64 8
  tail call void @_ZN6icu_756number4impl19NumberFormatterImplD2Ev(ptr noundef nonnull align 8 dereferenceable(600) %formatterImpl1.i) #10
  tail call void @_ZN6icu_757UMemorydlEPv(ptr noundef nonnull %atomic-temp.i.0.i2) #10
  br label %delete.end

delete.end:                                       ; preds = %_ZN6icu_756number4impl24NumberRangeFormatterImplD2Ev.exit, %entry
  ret ptr %this
}